target datalayout = "e-m:e-p270:32:32-p271:32:32-p272:64:64-i64:64-i128:128-f80:128-n8:16:32:64-S128"
target triple = "x86_64-pc-linux-gnu"

%"class.ncnn::Fold" = type { %"class.ncnn::Layer", i32, i32, i32, i32, i32, i32, i32, i32, i32, i32, i32, i32 }
%"class.ncnn::Layer" = type { ptr, i8, i8, i8, i8, i8, i8, i8, i8, i8, i8, i8, i8, i8, i8, i8, i8, i8, i8, i8, i8, i32, ptr, i32, %"class.std::__cxx11::basic_string", %"class.std::__cxx11::basic_string", %"class.std::vector", %"class.std::vector", %"class.std::vector.3", %"class.std::vector.3" }
%"class.std::__cxx11::basic_string" = type { %"struct.std::__cxx11::basic_string<char>::_Alloc_hider", i64, %union.anon }
%"struct.std::__cxx11::basic_string<char>::_Alloc_hider" = type { ptr }
%union.anon = type { i64, [8 x i8] }
%"class.std::vector" = type { %"struct.std::_Vector_base" }
%"struct.std::_Vector_base" = type { %"struct.std::_Vector_base<int, std::allocator<int>>::_Vector_impl" }
%"struct.std::_Vector_base<int, std::allocator<int>>::_Vector_impl" = type { %"struct.std::_Vector_base<int, std::allocator<int>>::_Vector_impl_data" }
%"struct.std::_Vector_base<int, std::allocator<int>>::_Vector_impl_data" = type { ptr, ptr, ptr }
%"class.std::vector.3" = type { %"struct.std::_Vector_base.4" }
%"struct.std::_Vector_base.4" = type { %"struct.std::_Vector_base<ncnn::Mat, std::allocator<ncnn::Mat>>::_Vector_impl" }
%"struct.std::_Vector_base<ncnn::Mat, std::allocator<ncnn::Mat>>::_Vector_impl" = type { %"struct.std::_Vector_base<ncnn::Mat, std::allocator<ncnn::Mat>>::_Vector_impl_data" }
%"struct.std::_Vector_base<ncnn::Mat, std::allocator<ncnn::Mat>>::_Vector_impl_data" = type { ptr, ptr, ptr }

; Function Attrs: mustprogress uwtable
define hidden noundef i32 @_ZN4ncnn4Fold10load_paramERKNS_9ParamDictE(ptr noundef nonnull align 8 dereferenceable(256) %0, ptr noundef nonnull align 8 dereferenceable(16) %1) unnamed_addr #2 align 2 {
  %3 = alloca ptr, align 8
  %4 = alloca ptr, align 8
  store ptr %0, ptr %3, align 8, !tbaa !4
  store ptr %1, ptr %4, align 8, !tbaa !9
  %5 = load ptr, ptr %3, align 8
  %6 = load ptr, ptr %4, align 8, !tbaa !9
  %7 = call noundef i32 @_ZNK4ncnn9ParamDict3getEii(ptr noundef nonnull align 8 dereferenceable(16) %6, i32 noundef 1, i32 noundef 0)
  %8 = getelementptr inbounds nuw %"class.ncnn::Fold", ptr %5, i32 0, i32 1
  store i32 %7, ptr %8, align 8, !tbaa !11
  %9 = load ptr, ptr %4, align 8, !tbaa !9
  %10 = getelementptr inbounds nuw %"class.ncnn::Fold", ptr %5, i32 0, i32 1
  %11 = load i32, ptr %10, align 8, !tbaa !11
  %12 = call noundef i32 @_ZNK4ncnn9ParamDict3getEii(ptr noundef nonnull align 8 dereferenceable(16) %9, i32 noundef 11, i32 noundef %11)
  %13 = getelementptr inbounds nuw %"class.ncnn::Fold", ptr %5, i32 0, i32 2
  store i32 %12, ptr %13, align 4, !tbaa !30
  %14 = load ptr, ptr %4, align 8, !tbaa !9
  %15 = call noundef i32 @_ZNK4ncnn9ParamDict3getEii(ptr noundef nonnull align 8 dereferenceable(16) %14, i32 noundef 2, i32 noundef 1)
  %16 = getelementptr inbounds nuw %"class.ncnn::Fold", ptr %5, i32 0, i32 3
  store i32 %15, ptr %16, align 8, !tbaa !31
  %17 = load ptr, ptr %4, align 8, !tbaa !9
  %18 = getelementptr inbounds nuw %"class.ncnn::Fold", ptr %5, i32 0, i32 3
  %19 = load i32, ptr %18, align 8, !tbaa !31
  %20 = call noundef i32 @_ZNK4ncnn9ParamDict3getEii(ptr noundef nonnull align 8 dereferenceable(16) %17, i32 noundef 12, i32 noundef %19)
  %21 = getelementptr inbounds nuw %"class.ncnn::Fold", ptr %5, i32 0, i32 4
  store i32 %20, ptr %21, align 4, !tbaa !32
  %22 = load ptr, ptr %4, align 8, !tbaa !9
  %23 = call noundef i32 @_ZNK4ncnn9ParamDict3getEii(ptr noundef nonnull align 8 dereferenceable(16) %22, i32 noundef 3, i32 noundef 1)
  %24 = getelementptr inbounds nuw %"class.ncnn::Fold", ptr %5, i32 0, i32 5
  store i32 %23, ptr %24, align 8, !tbaa !33
  %25 = load ptr, ptr %4, align 8, !tbaa !9
  %26 = getelementptr inbounds nuw %"class.ncnn::Fold", ptr %5, i32 0, i32 5
  %27 = load i32, ptr %26, align 8, !tbaa !33
  %28 = call noundef i32 @_ZNK4ncnn9ParamDict3getEii(ptr noundef nonnull align 8 dereferenceable(16) %25, i32 noundef 13, i32 noundef %27)
  %29 = getelementptr inbounds nuw %"class.ncnn::Fold", ptr %5, i32 0, i32 6
  store i32 %28, ptr %29, align 4, !tbaa !34
  %30 = load ptr, ptr %4, align 8, !tbaa !9
  %31 = call noundef i32 @_ZNK4ncnn9ParamDict3getEii(ptr noundef nonnull align 8 dereferenceable(16) %30, i32 noundef 4, i32 noundef 0)
  %32 = getelementptr inbounds nuw %"class.ncnn::Fold", ptr %5, i32 0, i32 7
  store i32 %31, ptr %32, align 8, !tbaa !35
  %33 = load ptr, ptr %4, align 8, !tbaa !9
  %34 = getelementptr inbounds nuw %"class.ncnn::Fold", ptr %5, i32 0, i32 7
  %35 = load i32, ptr %34, align 8, !tbaa !35
  %36 = call noundef i32 @_ZNK4ncnn9ParamDict3getEii(ptr noundef nonnull align 8 dereferenceable(16) %33, i32 noundef 15, i32 noundef %35)
  %37 = getelementptr inbounds nuw %"class.ncnn::Fold", ptr %5, i32 0, i32 8
  store i32 %36, ptr %37, align 4, !tbaa !36
  %38 = load ptr, ptr %4, align 8, !tbaa !9
  %39 = getelementptr inbounds nuw %"class.ncnn::Fold", ptr %5, i32 0, i32 7
  %40 = load i32, ptr %39, align 8, !tbaa !35
  %41 = call noundef i32 @_ZNK4ncnn9ParamDict3getEii(ptr noundef nonnull align 8 dereferenceable(16) %38, i32 noundef 14, i32 noundef %40)
  %42 = getelementptr inbounds nuw %"class.ncnn::Fold", ptr %5, i32 0, i32 9
  store i32 %41, ptr %42, align 8, !tbaa !37
  %43 = load ptr, ptr %4, align 8, !tbaa !9
  %44 = getelementptr inbounds nuw %"class.ncnn::Fold", ptr %5, i32 0, i32 9
  %45 = load i32, ptr %44, align 8, !tbaa !37
  %46 = call noundef i32 @_ZNK4ncnn9ParamDict3getEii(ptr noundef nonnull align 8 dereferenceable(16) %43, i32 noundef 16, i32 noundef %45)
  %47 = getelementptr inbounds nuw %"class.ncnn::Fold", ptr %5, i32 0, i32 10
  store i32 %46, ptr %47, align 4, !tbaa !38
  %48 = load ptr, ptr %4, align 8, !tbaa !9
  %49 = call noundef i32 @_ZNK4ncnn9ParamDict3getEii(ptr noundef nonnull align 8 dereferenceable(16) %48, i32 noundef 20, i32 noundef 0)
  %50 = getelementptr inbounds nuw %"class.ncnn::Fold", ptr %5, i32 0, i32 11
  store i32 %49, ptr %50, align 8, !tbaa !39
  %51 = load ptr, ptr %4, align 8, !tbaa !9
  %52 = getelementptr inbounds nuw %"class.ncnn::Fold", ptr %5, i32 0, i32 11
  %53 = load i32, ptr %52, align 8, !tbaa !39
  %54 = call noundef i32 @_ZNK4ncnn9ParamDict3getEii(ptr noundef nonnull align 8 dereferenceable(16) %51, i32 noundef 21, i32 noundef %53)
  %55 = getelementptr inbounds nuw %"class.ncnn::Fold", ptr %5, i32 0, i32 12
  store i32 %54, ptr %55, align 4, !tbaa !40
  ret i32 0
}